; Function Attrs: nounwind uwtable
define void @jpeg_set_linear_quality(ptr noundef %0, i32 noundef %1, i32 noundef %2) local_unnamed_addr #0 {
  %4 = getelementptr inbounds nuw i8, ptr %0, i64 36
  %5 = load i32, ptr %4, align 4, !tbaa !3
  %.not.i = icmp eq i32 %5, 100
  br i1 %.not.i, label %12, label %6

6:                                                ; preds = %3
  %7 = load ptr, ptr %0, align 8, !tbaa !24
  %8 = getelementptr inbounds nuw i8, ptr %7, i64 40
  store i32 20, ptr %8, align 8, !tbaa !25
  %9 = getelementptr inbounds nuw i8, ptr %7, i64 44
  store i32 %5, ptr %9, align 4, !tbaa !29
  %10 = load ptr, ptr %0, align 8, !tbaa !24
  %11 = load ptr, ptr %10, align 8, !tbaa !30
  tail call void %11(ptr noundef nonnull %0) #6
  br label %12

12:                                               ; preds = %6, %3
  %13 = getelementptr inbounds nuw i8, ptr %0, i64 96
  %14 = load ptr, ptr %13, align 8, !tbaa !31
  %15 = icmp eq ptr %14, null
  br i1 %15, label %16, label %18

16:                                               ; preds = %12
  %17 = tail call ptr @jpeg_alloc_quant_table(ptr noundef nonnull %0) #6
  store ptr %17, ptr %13, align 8, !tbaa !31
  br label %18

18:                                               ; preds = %16, %12
  %19 = phi ptr [ %17, %16 ], [ %14, %12 ]
  %20 = sext i32 %1 to i64
  %.not38.i = icmp eq i32 %2, 0
  br i1 %.not38.i, label %.split.us.i, label %.split.i

.split.us.i:                                      ; preds = %18, %.split.us.i
  %indvars.iv41.i = phi i64 [ %indvars.iv.next42.i, %.split.us.i ], [ 0, %18 ]
  %21 = getelementptr inbounds nuw i32, ptr @std_luminance_quant_tbl, i64 %indvars.iv41.i
  %22 = load i32, ptr %21, align 4, !tbaa !32
  %23 = zext i32 %22 to i64
  %24 = mul nsw i64 %23, %20
  %25 = add nsw i64 %24, 50
  %26 = sdiv i64 %25, 100
  %spec.store.select.us.i = tail call i64 @llvm.smax.i64(i64 %26, i64 1)
  %spec.store.select4.us.i = tail call i64 @llvm.umin.i64(i64 %spec.store.select.us.i, i64 32767)
  %27 = trunc nuw nsw i64 %spec.store.select4.us.i to i16
  %28 = getelementptr inbounds nuw [64 x i16], ptr %19, i64 0, i64 %indvars.iv41.i
  store i16 %27, ptr %28, align 2, !tbaa !33
  %indvars.iv.next42.i = add nuw nsw i64 %indvars.iv41.i, 1
  %exitcond44.not.i = icmp eq i64 %indvars.iv.next42.i, 64
  br i1 %exitcond44.not.i, label %jpeg_add_quant_table.exit, label %.split.us.i, !llvm.loop !34

.split.i:                                         ; preds = %18, %.split.i
  %indvars.iv.i = phi i64 [ %indvars.iv.next.i, %.split.i ], [ 0, %18 ]
  %29 = getelementptr inbounds nuw i32, ptr @std_luminance_quant_tbl, i64 %indvars.iv.i
  %30 = load i32, ptr %29, align 4, !tbaa !32
  %31 = zext i32 %30 to i64
  %32 = mul nsw i64 %31, %20
  %33 = add nsw i64 %32, 50
  %34 = sdiv i64 %33, 100
  %spec.store.select.i = tail call i64 @llvm.smax.i64(i64 %34, i64 1)
  %spec.store.select4.i = tail call i64 @llvm.umin.i64(i64 %spec.store.select.i, i64 32767)
  %35 = icmp sgt i64 %32, 25549
  %36 = trunc nuw nsw i64 %spec.store.select4.i to i16
  %spec.select.i = select i1 %35, i16 255, i16 %36
  %37 = getelementptr inbounds nuw [64 x i16], ptr %19, i64 0, i64 %indvars.iv.i
  store i16 %spec.select.i, ptr %37, align 2, !tbaa !33
  %indvars.iv.next.i = add nuw nsw i64 %indvars.iv.i, 1
  %exitcond.not.i = icmp eq i64 %indvars.iv.next.i, 64
  br i1 %exitcond.not.i, label %jpeg_add_quant_table.exit, label %.split.i, !llvm.loop !34

jpeg_add_quant_table.exit:                        ; preds = %.split.i, %.split.us.i
  %38 = getelementptr inbounds nuw i8, ptr %19, i64 128
  store i32 0, ptr %38, align 4, !tbaa !36
  %39 = load i32, ptr %4, align 4, !tbaa !3
  %.not.i5 = icmp eq i32 %39, 100
  br i1 %.not.i5, label %46, label %40

40:                                               ; preds = %jpeg_add_quant_table.exit
  %41 = load ptr, ptr %0, align 8, !tbaa !24
  %42 = getelementptr inbounds nuw i8, ptr %41, i64 40
  store i32 20, ptr %42, align 8, !tbaa !25
  %43 = getelementptr inbounds nuw i8, ptr %41, i64 44
  store i32 %39, ptr %43, align 4, !tbaa !29
  %44 = load ptr, ptr %0, align 8, !tbaa !24
  %45 = load ptr, ptr %44, align 8, !tbaa !30
  tail call void %45(ptr noundef nonnull %0) #6
  br label %46

46:                                               ; preds = %40, %jpeg_add_quant_table.exit
  %47 = getelementptr inbounds nuw i8, ptr %0, i64 104
  %48 = load ptr, ptr %47, align 8, !tbaa !31
  %49 = icmp eq ptr %48, null
  br i1 %49, label %50, label %52

50:                                               ; preds = %46
  %51 = tail call ptr @jpeg_alloc_quant_table(ptr noundef nonnull %0) #6
  store ptr %51, ptr %47, align 8, !tbaa !31
  br label %52

52:                                               ; preds = %50, %46
  %53 = phi ptr [ %51, %50 ], [ %48, %46 ]
  br i1 %.not38.i, label %.split.us.i14, label %.split.i7

.split.us.i14:                                    ; preds = %52, %.split.us.i14
  %indvars.iv41.i15 = phi i64 [ %indvars.iv.next42.i18, %.split.us.i14 ], [ 0, %52 ]
  %54 = getelementptr inbounds nuw i32, ptr @std_chrominance_quant_tbl, i64 %indvars.iv41.i15
  %55 = load i32, ptr %54, align 4, !tbaa !32
  %56 = zext i32 %55 to i64
  %57 = mul nsw i64 %56, %20
  %58 = add nsw i64 %57, 50
  %59 = sdiv i64 %58, 100
  %spec.store.select.us.i16 = tail call i64 @llvm.smax.i64(i64 %59, i64 1)
  %spec.store.select4.us.i17 = tail call i64 @llvm.umin.i64(i64 %spec.store.select.us.i16, i64 32767)
  %60 = trunc nuw nsw i64 %spec.store.select4.us.i17 to i16
  %61 = getelementptr inbounds nuw [64 x i16], ptr %53, i64 0, i64 %indvars.iv41.i15
  store i16 %60, ptr %61, align 2, !tbaa !33
  %indvars.iv.next42.i18 = add nuw nsw i64 %indvars.iv41.i15, 1
  %exitcond44.not.i19 = icmp eq i64 %indvars.iv.next42.i18, 64
  br i1 %exitcond44.not.i19, label %jpeg_add_quant_table.exit20, label %.split.us.i14, !llvm.loop !34

.split.i7:                                        ; preds = %52, %.split.i7
  %indvars.iv.i8 = phi i64 [ %indvars.iv.next.i12, %.split.i7 ], [ 0, %52 ]
  %62 = getelementptr inbounds nuw i32, ptr @std_chrominance_quant_tbl, i64 %indvars.iv.i8
  %63 = load i32, ptr %62, align 4, !tbaa !32
  %64 = zext i32 %63 to i64
  %65 = mul nsw i64 %64, %20
  %66 = add nsw i64 %65, 50
  %67 = sdiv i64 %66, 100
  %spec.store.select.i9 = tail call i64 @llvm.smax.i64(i64 %67, i64 1)
  %spec.store.select4.i10 = tail call i64 @llvm.umin.i64(i64 %spec.store.select.i9, i64 32767)
  %68 = icmp sgt i64 %65, 25549
  %69 = trunc nuw nsw i64 %spec.store.select4.i10 to i16
  %spec.select.i11 = select i1 %68, i16 255, i16 %69
  %70 = getelementptr inbounds nuw [64 x i16], ptr %53, i64 0, i64 %indvars.iv.i8
  store i16 %spec.select.i11, ptr %70, align 2, !tbaa !33
  %indvars.iv.next.i12 = add nuw nsw i64 %indvars.iv.i8, 1
  %exitcond.not.i13 = icmp eq i64 %indvars.iv.next.i12, 64
  br i1 %exitcond.not.i13, label %jpeg_add_quant_table.exit20, label %.split.i7, !llvm.loop !34

jpeg_add_quant_table.exit20:                      ; preds = %.split.i7, %.split.us.i14
  %71 = getelementptr inbounds nuw i8, ptr %53, i64 128
  store i32 0, ptr %71, align 4, !tbaa !36
  ret void
}